target datalayout = "e-m:e-p270:32:32-p271:32:32-p272:64:64-i64:64-i128:128-f80:128-n8:16:32:64-S128"
target triple = "x86_64-pc-linux-gnu"

%"struct.std::_Rb_tree_header" = type { %"struct.std::_Rb_tree_node_base", i64 }
%"struct.std::_Rb_tree_node_base" = type { i32, ptr, ptr, ptr }
%"class.(anonymous namespace)::SubCircuitSolver" = type { %"class.SubCircuit::Solver", i8, %"class.std::set", %"class.std::set.6", %"class.std::set.6" }
%"class.SubCircuit::Solver" = type { ptr, ptr }
%"class.std::set" = type { %"class.std::_Rb_tree" }
%"class.std::_Rb_tree" = type { %"struct.std::_Rb_tree<std::pair<Yosys::RTLIL::IdString, Yosys::RTLIL::IdString>, std::pair<Yosys::RTLIL::IdString, Yosys::RTLIL::IdString>, std::_Identity<std::pair<Yosys::RTLIL::IdString, Yosys::RTLIL::IdString>>, std::less<std::pair<Yosys::RTLIL::IdString, Yosys::RTLIL::IdString>>>::_Rb_tree_impl" }
%"struct.std::_Rb_tree<std::pair<Yosys::RTLIL::IdString, Yosys::RTLIL::IdString>, std::pair<Yosys::RTLIL::IdString, Yosys::RTLIL::IdString>, std::_Identity<std::pair<Yosys::RTLIL::IdString, Yosys::RTLIL::IdString>>, std::less<std::pair<Yosys::RTLIL::IdString, Yosys::RTLIL::IdString>>>::_Rb_tree_impl" = type { [8 x i8], %"struct.std::_Rb_tree_header" }
%"class.std::set.6" = type { %"class.std::_Rb_tree.7" }
%"class.std::_Rb_tree.7" = type { %"struct.std::_Rb_tree<Yosys::RTLIL::IdString, Yosys::RTLIL::IdString, std::_Identity<Yosys::RTLIL::IdString>, std::less<Yosys::RTLIL::IdString>>::_Rb_tree_impl" }
%"struct.std::_Rb_tree<Yosys::RTLIL::IdString, Yosys::RTLIL::IdString, std::_Identity<Yosys::RTLIL::IdString>, std::less<Yosys::RTLIL::IdString>>::_Rb_tree_impl" = type { [8 x i8], %"struct.std::_Rb_tree_header" }

; Function Attrs: mustprogress nounwind uwtable
define linkonce_odr noundef ptr @_ZNKSt8_Rb_treeISt4pairIN5Yosys5RTLIL8IdStringES3_ES4_St9_IdentityIS4_ESt4lessIS4_ESaIS4_EE9_M_mbeginEv(ptr noundef nonnull align 8 dereferenceable(48) %0) #6 comdat align 2 {
  %2 = alloca ptr, align 8
  store ptr %0, ptr %2, align 8, !tbaa !393
  %3 = load ptr, ptr %2, align 8
  %4 = getelementptr inbounds nuw %"class.std::_Rb_tree", ptr %3, i32 0, i32 0
  %5 = getelementptr inbounds i8, ptr %4, i64 8
  %6 = getelementptr inbounds nuw %"struct.std::_Rb_tree_header", ptr %5, i32 0, i32 0
  %7 = getelementptr inbounds nuw %"struct.std::_Rb_tree_node_base", ptr %6, i32 0, i32 1
  %8 = load ptr, ptr %7, align 8, !tbaa !353
  ret ptr %8
}

; Function Attrs: mustprogress nounwind uwtable
define linkonce_odr noundef ptr @_ZNKSt8_Rb_treeIN5Yosys5RTLIL8IdStringES2_St9_IdentityIS2_ESt4lessIS2_ESaIS2_EE9_M_mbeginEv(ptr noundef nonnull align 8 dereferenceable(48) %0) #6 comdat align 2 {
  %2 = alloca ptr, align 8
  store ptr %0, ptr %2, align 8, !tbaa !340
  %3 = load ptr, ptr %2, align 8
  %4 = getelementptr inbounds nuw %"class.std::_Rb_tree.7", ptr %3, i32 0, i32 0
  %5 = getelementptr inbounds i8, ptr %4, i64 8
  %6 = getelementptr inbounds nuw %"struct.std::_Rb_tree_header", ptr %5, i32 0, i32 0
  %7 = getelementptr inbounds nuw %"struct.std::_Rb_tree_node_base", ptr %6, i32 0, i32 1
  %8 = load ptr, ptr %7, align 8, !tbaa !353
  ret ptr %8
}

; Function Attrs: mustprogress nounwind uwtable
define linkonce_odr void @_ZNSt15__new_allocatorISt13_Rb_tree_nodeISt4pairIN5Yosys5RTLIL8IdStringES4_EEED2Ev(ptr noundef nonnull align 1 dereferenceable(1) %0) unnamed_addr #6 comdat align 2 {
  %2 = alloca ptr, align 8
  store ptr %0, ptr %2, align 8, !tbaa !605
  ret void
}

; Function Attrs: mustprogress nounwind uwtable
define linkonce_odr noundef ptr @_ZNSt8_Rb_treeISt4pairIN5Yosys5RTLIL8IdStringES3_ES4_St9_IdentityIS4_ESt4lessIS4_ESaIS4_EE8_M_beginEv(ptr noundef nonnull align 8 dereferenceable(48) %0) #6 comdat align 2 {
  %2 = alloca ptr, align 8
  store ptr %0, ptr %2, align 8, !tbaa !393
  %3 = load ptr, ptr %2, align 8
  %4 = call noundef ptr @_ZNKSt8_Rb_treeISt4pairIN5Yosys5RTLIL8IdStringES3_ES4_St9_IdentityIS4_ESt4lessIS4_ESaIS4_EE9_M_mbeginEv(ptr noundef nonnull align 8 dereferenceable(48) %3) #3
  ret ptr %4
}

; Function Attrs: mustprogress nounwind uwtable
define linkonce_odr void @_ZNSt15__new_allocatorISt13_Rb_tree_nodeIN5Yosys5RTLIL8IdStringEEED2Ev(ptr noundef nonnull align 1 dereferenceable(1) %0) unnamed_addr #6 comdat align 2 {
  %2 = alloca ptr, align 8
  store ptr %0, ptr %2, align 8, !tbaa !351
  ret void
}

; Function Attrs: mustprogress nounwind uwtable
define linkonce_odr noundef ptr @_ZNSt8_Rb_treeIN5Yosys5RTLIL8IdStringES2_St9_IdentityIS2_ESt4lessIS2_ESaIS2_EE8_M_beginEv(ptr noundef nonnull align 8 dereferenceable(48) %0) #6 comdat align 2 {
  %2 = alloca ptr, align 8
  store ptr %0, ptr %2, align 8, !tbaa !340
  %3 = load ptr, ptr %2, align 8
  %4 = call noundef ptr @_ZNKSt8_Rb_treeIN5Yosys5RTLIL8IdStringES2_St9_IdentityIS2_ESt4lessIS2_ESaIS2_EE9_M_mbeginEv(ptr noundef nonnull align 8 dereferenceable(48) %3) #3
  ret ptr %4
}

; Function Attrs: mustprogress nounwind uwtable
define linkonce_odr void @_ZNSt8_Rb_treeISt4pairIN5Yosys5RTLIL8IdStringES3_ES4_St9_IdentityIS4_ESt4lessIS4_ESaIS4_EED2Ev(ptr noundef nonnull align 8 dereferenceable(48) %0) unnamed_addr #6 comdat align 2 personality ptr @__gxx_personality_v0 {
  %2 = alloca ptr, align 8
  store ptr %0, ptr %2, align 8, !tbaa !393
  %3 = load ptr, ptr %2, align 8
  %4 = call noundef ptr @_ZNSt8_Rb_treeISt4pairIN5Yosys5RTLIL8IdStringES3_ES4_St9_IdentityIS4_ESt4lessIS4_ESaIS4_EE8_M_beginEv(ptr noundef nonnull align 8 dereferenceable(48) %3) #3
  invoke void @_ZNSt8_Rb_treeISt4pairIN5Yosys5RTLIL8IdStringES3_ES4_St9_IdentityIS4_ESt4lessIS4_ESaIS4_EE8_M_eraseEPSt13_Rb_tree_nodeIS4_E(ptr noundef nonnull align 8 dereferenceable(48) %3, ptr noundef %4)
          to label %5 unwind label %7

5:                                                ; preds = %1
  %6 = getelementptr inbounds nuw %"class.std::_Rb_tree", ptr %3, i32 0, i32 0
  call void @_ZNSt15__new_allocatorISt13_Rb_tree_nodeISt4pairIN5Yosys5RTLIL8IdStringES4_EEED2Ev(ptr noundef nonnull align 8 dereferenceable(48) %6) #3
  ret void

7:                                                ; preds = %1
  %8 = landingpad { ptr, i32 }
          catch ptr null
  %9 = extractvalue { ptr, i32 } %8, 0
  call void @__clang_call_terminate(ptr %9) #22
  unreachable
}

; Function Attrs: mustprogress nounwind uwtable
define linkonce_odr void @_ZNSt8_Rb_treeIN5Yosys5RTLIL8IdStringES2_St9_IdentityIS2_ESt4lessIS2_ESaIS2_EED2Ev(ptr noundef nonnull align 8 dereferenceable(48) %0) unnamed_addr #6 comdat align 2 personality ptr @__gxx_personality_v0 {
  %2 = alloca ptr, align 8
  store ptr %0, ptr %2, align 8, !tbaa !340
  %3 = load ptr, ptr %2, align 8
  %4 = call noundef ptr @_ZNSt8_Rb_treeIN5Yosys5RTLIL8IdStringES2_St9_IdentityIS2_ESt4lessIS2_ESaIS2_EE8_M_beginEv(ptr noundef nonnull align 8 dereferenceable(48) %3) #3
  invoke void @_ZNSt8_Rb_treeIN5Yosys5RTLIL8IdStringES2_St9_IdentityIS2_ESt4lessIS2_ESaIS2_EE8_M_eraseEPSt13_Rb_tree_nodeIS2_E(ptr noundef nonnull align 8 dereferenceable(48) %3, ptr noundef %4)
          to label %5 unwind label %7

5:                                                ; preds = %1
  %6 = getelementptr inbounds nuw %"class.std::_Rb_tree.7", ptr %3, i32 0, i32 0
  call void @_ZNSt15__new_allocatorISt13_Rb_tree_nodeIN5Yosys5RTLIL8IdStringEEED2Ev(ptr noundef nonnull align 8 dereferenceable(48) %6) #3
  ret void

7:                                                ; preds = %1
  %8 = landingpad { ptr, i32 }
          catch ptr null
  %9 = extractvalue { ptr, i32 } %8, 0
  call void @__clang_call_terminate(ptr %9) #22
  unreachable
}

; Function Attrs: mustprogress nounwind uwtable
define linkonce_odr void @_ZNSt3setISt4pairIN5Yosys5RTLIL8IdStringES3_ESt4lessIS4_ESaIS4_EED2Ev(ptr noundef nonnull align 8 dereferenceable(48) %0) unnamed_addr #6 comdat align 2 {
  %2 = alloca ptr, align 8
  store ptr %0, ptr %2, align 8, !tbaa !164
  %3 = load ptr, ptr %2, align 8
  %4 = getelementptr inbounds nuw %"class.std::set", ptr %3, i32 0, i32 0
  call void @_ZNSt8_Rb_treeISt4pairIN5Yosys5RTLIL8IdStringES3_ES4_St9_IdentityIS4_ESt4lessIS4_ESaIS4_EED2Ev(ptr noundef nonnull align 8 dereferenceable(48) %4) #3
  ret void
}

; Function Attrs: mustprogress nounwind uwtable
define linkonce_odr void @_ZNSt3setIN5Yosys5RTLIL8IdStringESt4lessIS2_ESaIS2_EED2Ev(ptr noundef nonnull align 8 dereferenceable(48) %0) unnamed_addr #6 comdat align 2 {
  %2 = alloca ptr, align 8
  store ptr %0, ptr %2, align 8, !tbaa !177
  %3 = load ptr, ptr %2, align 8
  %4 = getelementptr inbounds nuw %"class.std::set.6", ptr %3, i32 0, i32 0
  call void @_ZNSt8_Rb_treeIN5Yosys5RTLIL8IdStringES2_St9_IdentityIS2_ESt4lessIS2_ESaIS2_EED2Ev(ptr noundef nonnull align 8 dereferenceable(48) %4) #3
  ret void
}

; Function Attrs: inlinehint mustprogress nounwind uwtable
define internal void @_ZN12_GLOBAL__N_116SubCircuitSolverD2Ev(ptr noundef nonnull align 8 dereferenceable(168) %0) unnamed_addr #7 align 2 {
  %2 = alloca ptr, align 8
  store ptr %0, ptr %2, align 8, !tbaa !162
  %3 = load ptr, ptr %2, align 8
  store ptr getelementptr inbounds inrange(-16, 48) ({ [8 x ptr] }, ptr @_ZTVN12_GLOBAL__N_116SubCircuitSolverE, i32 0, i32 0, i32 2), ptr %3, align 8, !tbaa !11
  %4 = getelementptr inbounds nuw %"class.(anonymous namespace)::SubCircuitSolver", ptr %3, i32 0, i32 4
  call void @_ZNSt3setIN5Yosys5RTLIL8IdStringESt4lessIS2_ESaIS2_EED2Ev(ptr noundef nonnull align 8 dereferenceable(48) %4) #3
  %5 = getelementptr inbounds nuw %"class.(anonymous namespace)::SubCircuitSolver", ptr %3, i32 0, i32 3
  call void @_ZNSt3setIN5Yosys5RTLIL8IdStringESt4lessIS2_ESaIS2_EED2Ev(ptr noundef nonnull align 8 dereferenceable(48) %5) #3
  %6 = getelementptr inbounds nuw %"class.(anonymous namespace)::SubCircuitSolver", ptr %3, i32 0, i32 2
  call void @_ZNSt3setISt4pairIN5Yosys5RTLIL8IdStringES3_ESt4lessIS4_ESaIS4_EED2Ev(ptr noundef nonnull align 8 dereferenceable(48) %6) #3
  call void @_ZN10SubCircuit6SolverD2Ev(ptr noundef nonnull align 8 dereferenceable(16) %3) #3
  ret void
}